; Function Attrs: mustprogress nofree norecurse nounwind willreturn uwtable
define internal void @_ZNK5arrow12_GLOBAL__N_122ArrayStreamBatchReader6schemaEv(ptr noalias nocapture writeonly sret(%"class.std::shared_ptr.77") align 8 %agg.result, ptr nocapture noundef nonnull readonly align 8 dereferenceable(64) %this) unnamed_addr #18 align 2 personality ptr @__gxx_personality_v0 {
entry:
  %schema_ = getelementptr inbounds i8, ptr %this, i64 48
  %0 = load <2 x ptr>, ptr %schema_, align 8
  store <2 x ptr> %0, ptr %agg.result, align 8
  %1 = extractelement <2 x ptr> %0, i64 1
  %cmp.not.i.i.i = icmp eq ptr %1, null
  br i1 %cmp.not.i.i.i, label %_ZNSt10shared_ptrIN5arrow6SchemaEEC2ERKS2_.exit, label %if.then.i.i.i

if.then.i.i.i:                                    ; preds = %entry
  %_M_use_count.i.i.i.i = getelementptr inbounds i8, ptr %1, i64 8
  %2 = load i8, ptr @__libc_single_threaded, align 1
  %tobool.i.i.not.i.i.i.i = icmp eq i8 %2, 0
  br i1 %tobool.i.i.not.i.i.i.i, label %if.else.i.i.i.i.i, label %if.then.i.i.i.i.i

if.then.i.i.i.i.i:                                ; preds = %if.then.i.i.i
  %3 = load i32, ptr %_M_use_count.i.i.i.i, align 4
  %add.i.i.i.i.i = add nsw i32 %3, 1
  store i32 %add.i.i.i.i.i, ptr %_M_use_count.i.i.i.i, align 4
  br label %_ZNSt10shared_ptrIN5arrow6SchemaEEC2ERKS2_.exit

if.else.i.i.i.i.i:                                ; preds = %if.then.i.i.i
  %4 = atomicrmw volatile add ptr %_M_use_count.i.i.i.i, i32 1 acq_rel, align 4
  br label %_ZNSt10shared_ptrIN5arrow6SchemaEEC2ERKS2_.exit

_ZNSt10shared_ptrIN5arrow6SchemaEEC2ERKS2_.exit:  ; preds = %entry, %if.then.i.i.i.i.i, %if.else.i.i.i.i.i
  ret void
}